target datalayout = "e-m:e-p270:32:32-p271:32:32-p272:64:64-i64:64-i128:128-f80:128-n8:16:32:64-S128"
target triple = "x86_64-pc-linux-gnu"

%struct._object = type { %union.anon, ptr }
%union.anon = type { i64 }
%struct.anon = type { i32, i32 }

@.str.98 = private unnamed_addr constant [7 x i8] c"typing\00", align 1

; Function Attrs: alwaysinline nounwind uwtable
define internal i32 @_Py_IsImmortal(ptr noundef %0) #4 {
  %2 = alloca ptr, align 8
  store ptr %0, ptr %2, align 8, !tbaa !4
  %3 = load ptr, ptr %2, align 8, !tbaa !4
  %4 = getelementptr inbounds nuw %struct._object, ptr %3, i32 0, i32 0
  %5 = getelementptr inbounds nuw %struct.anon, ptr %4, i32 0, i32 0
  %6 = load i32, ptr %5, align 8, !tbaa !27
  %7 = icmp slt i32 %6, 0
  %8 = zext i1 %7 to i32
  ret i32 %8
}

; Function Attrs: alwaysinline nounwind uwtable
define internal void @Py_DECREF(ptr noundef %0) #4 {
  %2 = alloca ptr, align 8
  store ptr %0, ptr %2, align 8, !tbaa !4
  %3 = load ptr, ptr %2, align 8, !tbaa !4
  %4 = call i32 @_Py_IsImmortal(ptr noundef %3)
  %5 = icmp ne i32 %4, 0
  br i1 %5, label %6, label %7

6:                                                ; preds = %1
  br label %16

7:                                                ; preds = %1
  %8 = load ptr, ptr %2, align 8, !tbaa !4
  %9 = getelementptr inbounds nuw %struct._object, ptr %8, i32 0, i32 0
  %10 = getelementptr inbounds nuw %struct.anon, ptr %9, i32 0, i32 0
  %11 = load i32, ptr %10, align 8, !tbaa !27
  %12 = add i32 %11, -1
  store i32 %12, ptr %10, align 8, !tbaa !27
  %13 = icmp eq i32 %12, 0
  br i1 %13, label %14, label %16

14:                                               ; preds = %7
  %15 = load ptr, ptr %2, align 8, !tbaa !4
  call void @_Py_Dealloc(ptr noundef %15)
  br label %16

16:                                               ; preds = %6, %14, %7
  ret void
}

; Function Attrs: nounwind uwtable
define internal ptr @call_typing_func_object(ptr noundef %0, ptr noundef %1, i64 noundef %2) #0 {
  %4 = alloca ptr, align 8
  %5 = alloca ptr, align 8
  %6 = alloca ptr, align 8
  %7 = alloca i64, align 8
  %8 = alloca ptr, align 8
  %9 = alloca i32, align 4
  %10 = alloca ptr, align 8
  %11 = alloca ptr, align 8
  store ptr %0, ptr %5, align 8, !tbaa !149
  store ptr %1, ptr %6, align 8, !tbaa !28
  store i64 %2, ptr %7, align 8, !tbaa !15
  call void @llvm.lifetime.start.p0(i64 8, ptr %8) #6
  %12 = call ptr @PyImport_ImportModule(ptr noundef @.str.98)
  store ptr %12, ptr %8, align 8, !tbaa !4
  %13 = load ptr, ptr %8, align 8, !tbaa !4
  %14 = icmp eq ptr %13, null
  br i1 %14, label %15, label %16

15:                                               ; preds = %3
  store ptr null, ptr %4, align 8
  store i32 1, ptr %9, align 4
  br label %33

16:                                               ; preds = %3
  call void @llvm.lifetime.start.p0(i64 8, ptr %10) #6
  %17 = load ptr, ptr %8, align 8, !tbaa !4
  %18 = load ptr, ptr %5, align 8, !tbaa !149
  %19 = call ptr @PyObject_GetAttrString(ptr noundef %17, ptr noundef %18)
  store ptr %19, ptr %10, align 8, !tbaa !4
  %20 = load ptr, ptr %10, align 8, !tbaa !4
  %21 = icmp eq ptr %20, null
  br i1 %21, label %22, label %24

22:                                               ; preds = %16
  %23 = load ptr, ptr %8, align 8, !tbaa !4
  call void @Py_DECREF(ptr noundef %23)
  store ptr null, ptr %4, align 8
  store i32 1, ptr %9, align 4
  br label %32

24:                                               ; preds = %16
  call void @llvm.lifetime.start.p0(i64 8, ptr %11) #6
  %25 = load ptr, ptr %10, align 8, !tbaa !4
  %26 = load ptr, ptr %6, align 8, !tbaa !28
  %27 = load i64, ptr %7, align 8, !tbaa !15
  %28 = call ptr @PyObject_Vectorcall(ptr noundef %25, ptr noundef %26, i64 noundef %27, ptr noundef null)
  store ptr %28, ptr %11, align 8, !tbaa !4
  %29 = load ptr, ptr %10, align 8, !tbaa !4
  call void @Py_DECREF(ptr noundef %29)
  %30 = load ptr, ptr %8, align 8, !tbaa !4
  call void @Py_DECREF(ptr noundef %30)
  %31 = load ptr, ptr %11, align 8, !tbaa !4
  store ptr %31, ptr %4, align 8
  store i32 1, ptr %9, align 4
  call void @llvm.lifetime.end.p0(i64 8, ptr %11) #6
  br label %32

32:                                               ; preds = %24, %22
  call void @llvm.lifetime.end.p0(i64 8, ptr %10) #6
  br label %33

33:                                               ; preds = %32, %15
  call void @llvm.lifetime.end.p0(i64 8, ptr %8) #6
  %34 = load ptr, ptr %4, align 8
  ret ptr %34
}